; Function Attrs: nofree norecurse nosync nounwind memory(readwrite, inaccessiblemem: none) uwtable
define hidden void @ByteGrayToThreeByteBgrScaleConvert(ptr noundef %0, ptr noundef %1, i32 noundef %2, i32 noundef %3, i32 noundef %4, i32 noundef %5, i32 noundef %6, i32 noundef %7, i32 noundef %8, ptr nocapture noundef readonly %9, ptr nocapture noundef readonly %10, ptr nocapture readnone %11, ptr nocapture readnone %12) #1 {
  %14 = getelementptr inbounds i8, ptr %9, i64 32
  %15 = load i32, ptr %14, align 8
  %16 = getelementptr inbounds i8, ptr %10, i64 32
  %17 = load i32, ptr %16, align 8
  %.neg = mul i32 %2, -3
  %18 = add i32 %17, %.neg
  %19 = sext i32 %18 to i64
  %20 = ptrtoint ptr %0 to i64
  %21 = sext i32 %15 to i64
  br label %22

22:                                               ; preds = %40, %13
  %.030 = phi ptr [ %1, %13 ], [ %42, %40 ]
  %.029 = phi i32 [ %5, %13 ], [ %43, %40 ]
  %.0 = phi i32 [ %3, %13 ], [ %44, %40 ]
  %23 = ashr i32 %.029, %8
  %24 = sext i32 %23 to i64
  %25 = mul nsw i64 %24, %21
  %26 = add nsw i64 %25, %20
  %27 = inttoptr i64 %26 to ptr
  br label %28

28:                                               ; preds = %28, %22
  %.032 = phi i32 [ %2, %22 ], [ %39, %28 ]
  %.031 = phi i32 [ %4, %22 ], [ %38, %28 ]
  %.1 = phi ptr [ %.030, %22 ], [ %37, %28 ]
  %29 = ashr i32 %.031, %8
  %30 = sext i32 %29 to i64
  %31 = getelementptr inbounds i8, ptr %27, i64 %30
  %32 = load i8, ptr %31, align 1
  store i8 %32, ptr %.1, align 1
  %33 = getelementptr inbounds i8, ptr %.1, i64 1
  store i8 %32, ptr %33, align 1
  %34 = getelementptr inbounds i8, ptr %.1, i64 2
  store i8 %32, ptr %34, align 1
  %35 = ptrtoint ptr %.1 to i64
  %36 = add nsw i64 %35, 3
  %37 = inttoptr i64 %36 to ptr
  %38 = add nsw i32 %.031, %6
  %39 = add i32 %.032, -1
  %.not = icmp eq i32 %39, 0
  br i1 %.not, label %40, label %28, !llvm.loop !19

40:                                               ; preds = %28
  %41 = add nsw i64 %36, %19
  %42 = inttoptr i64 %41 to ptr
  %43 = add nsw i32 %.029, %7
  %44 = add i32 %.0, -1
  %.not34 = icmp eq i32 %44, 0
  br i1 %.not34, label %45, label %22, !llvm.loop !20

45:                                               ; preds = %40
  ret void
}